	.file	"intMath.c"
	.text
	.section	.rodata
.LC0:
	.string	"polynomial(%d)/3 = %d\n"
	.text
	.globl	main
	.type	main, @function
main:
.LFB0:
	.cfi_startproc
	pushq	%rbp
	.cfi_def_cfa_offset 16
	.cfi_offset 6, -16
	movq	%rsp, %rbp
	.cfi_def_cfa_register 6
	subq	$16, %rsp
	movl	$5, -4(%rbp)
	movl	-4(%rbp), %edx
	movl	-4(%rbp), %eax
	movl	%edx, %esi
	movl	%eax, %edi
	call	funcC
	movl	%eax, -8(%rbp)
	movl	-4(%rbp), %eax
	movl	%eax, %esi
	movl	$4, %edi
	call	funcC
	movl	%eax, -12(%rbp)
	movl	-12(%rbp), %edx
	movl	-8(%rbp), %eax
	movl	%edx, %esi
	movl	%eax, %edi
	call	funcB
	movl	%eax, -8(%rbp)
	movl	-8(%rbp), %eax
	movl	$4, %esi
	movl	%eax, %edi
	call	funcA
	movl	%eax, -8(%rbp)
	movl	-8(%rbp), %eax
	movl	$3, %esi
	movl	%eax, %edi
	call	funcD
	movl	%eax, -8(%rbp)
	movl	-8(%rbp), %edx
	movl	-4(%rbp), %eax
	movl	%eax, %esi
	leaq	.LC0(%rip), %rax
	movq	%rax, %rdi
	movl	$0, %eax
	call	printf@PLT
	movl	$0, %eax
	leave
	.cfi_def_cfa 7, 8
	ret
	.cfi_endproc
.LFE0:
	.size	main, .-main
	.globl	funcA
	.type	funcA, @function
funcA:
.LFB1:
	.cfi_startproc
	pushq	%rbp
	.cfi_def_cfa_offset 16
	.cfi_offset 6, -16
	movq	%rsp, %rbp
	.cfi_def_cfa_register 6
	movl	%edi, -4(%rbp)
	movl	%esi, -8(%rbp)
	movl	-4(%rbp), %edx
	movl	-8(%rbp), %eax
	addl	%edx, %eax
	popq	%rbp
	.cfi_def_cfa 7, 8
	ret
	.cfi_endproc
.LFE1:
	.size	funcA, .-funcA
	.globl	funcB
	.type	funcB, @function
funcB:
.LFB2:
	.cfi_startproc
	pushq	%rbp
	.cfi_def_cfa_offset 16
	.cfi_offset 6, -16
	movq	%rsp, %rbp
	.cfi_def_cfa_register 6
	movl	%edi, -4(%rbp)
	movl	%esi, -8(%rbp)
	movl	-4(%rbp), %eax
	subl	-8(%rbp), %eax
	popq	%rbp
	.cfi_def_cfa 7, 8
	ret
	.cfi_endproc
.LFE2:
	.size	funcB, .-funcB
	.globl	funcC
	.type	funcC, @function
funcC:
.LFB3:
	.cfi_startproc
	pushq	%rbp
	.cfi_def_cfa_offset 16
	.cfi_offset 6, -16
	movq	%rsp, %rbp
	.cfi_def_cfa_register 6
	movl	%edi, -4(%rbp)
	movl	%esi, -8(%rbp)
	movl	-4(%rbp), %eax
	imull	-8(%rbp), %eax
	popq	%rbp
	.cfi_def_cfa 7, 8
	ret
	.cfi_endproc
.LFE3:
	.size	funcC, .-funcC
	.globl	funcD
	.type	funcD, @function
funcD:
.LFB4:
	.cfi_startproc
	pushq	%rbp
	.cfi_def_cfa_offset 16
	.cfi_offset 6, -16
	movq	%rsp, %rbp
	.cfi_def_cfa_register 6
	movl	%edi, -4(%rbp)
	movl	%esi, -8(%rbp)
	movl	-4(%rbp), %eax
	cltd
	idivl	-8(%rbp)
	popq	%rbp
	.cfi_def_cfa 7, 8
	ret
	.cfi_endproc
.LFE4:
	.size	funcD, .-funcD
	.ident	"GCC: (Debian 12.2.0-14) 12.2.0"
	.section	.note.GNU-stack,"",@progbits
